target datalayout = "e-m:e-p270:32:32-p271:32:32-p272:64:64-i64:64-i128:128-f80:128-n8:16:32:64-S128"
target triple = "x86_64-pc-linux-gnu"

%"class.icu_77::UnicodeString" = type { %"class.icu_77::Replaceable", %"union.icu_77::UnicodeString::StackBufferOrFields" }
%"class.icu_77::Replaceable" = type { %"class.icu_77::UObject" }
%"class.icu_77::UObject" = type { ptr }
%"union.icu_77::UnicodeString::StackBufferOrFields" = type { %struct.anon.0, [32 x i8] }
%struct.anon.0 = type { i16, i32, i32, ptr }
%struct.anon = type { i16, [27 x i16] }

; Function Attrs: inlinehint mustprogress nounwind uwtable
define linkonce_odr noundef ptr @_ZNK6icu_7713UnicodeString13getArrayStartEv(ptr noundef nonnull align 8 dereferenceable(64) %0) #2 comdat align 2 {
  %2 = alloca ptr, align 8
  store ptr %0, ptr %2, align 8, !tbaa !72
  %3 = load ptr, ptr %2, align 8
  %4 = getelementptr inbounds nuw %"class.icu_77::UnicodeString", ptr %3, i32 0, i32 1
  %5 = getelementptr inbounds nuw %struct.anon.0, ptr %4, i32 0, i32 0
  %6 = load i16, ptr %5, align 8, !tbaa !74
  %7 = sext i16 %6 to i32
  %8 = and i32 %7, 2
  %9 = icmp ne i32 %8, 0
  br i1 %9, label %10, label %14

10:                                               ; preds = %1
  %11 = getelementptr inbounds nuw %"class.icu_77::UnicodeString", ptr %3, i32 0, i32 1
  %12 = getelementptr inbounds nuw %struct.anon, ptr %11, i32 0, i32 1
  %13 = getelementptr inbounds [27 x i16], ptr %12, i64 0, i64 0
  br label %18

14:                                               ; preds = %1
  %15 = getelementptr inbounds nuw %"class.icu_77::UnicodeString", ptr %3, i32 0, i32 1
  %16 = getelementptr inbounds nuw %struct.anon.0, ptr %15, i32 0, i32 3
  %17 = load ptr, ptr %16, align 8, !tbaa !74
  br label %18

18:                                               ; preds = %14, %10
  %19 = phi ptr [ %13, %10 ], [ %17, %14 ]
  ret ptr %19
}

; Function Attrs: inlinehint mustprogress uwtable
define linkonce_odr noundef zeroext i16 @_ZNK6icu_7713UnicodeString8doCharAtEi(ptr noundef nonnull align 8 dereferenceable(64) %0, i32 noundef %1) #3 comdat align 2 {
  %3 = alloca i16, align 2
  %4 = alloca ptr, align 8
  %5 = alloca i32, align 4
  store ptr %0, ptr %4, align 8, !tbaa !72
  store i32 %1, ptr %5, align 4, !tbaa !14
  %6 = load ptr, ptr %4, align 8
  %7 = load i32, ptr %5, align 4, !tbaa !14
  %8 = call noundef i32 @_ZNK6icu_7713UnicodeString6lengthEv(ptr noundef nonnull align 8 dereferenceable(64) %6)
  %9 = icmp ult i32 %7, %8
  br i1 %9, label %10, label %16

10:                                               ; preds = %2
  %11 = call noundef ptr @_ZNK6icu_7713UnicodeString13getArrayStartEv(ptr noundef nonnull align 8 dereferenceable(64) %6)
  %12 = load i32, ptr %5, align 4, !tbaa !14
  %13 = sext i32 %12 to i64
  %14 = getelementptr inbounds i16, ptr %11, i64 %13
  %15 = load i16, ptr %14, align 2, !tbaa !141
  store i16 %15, ptr %3, align 2
  br label %17

16:                                               ; preds = %2
  store i16 -1, ptr %3, align 2
  br label %17

17:                                               ; preds = %16, %10
  %18 = load i16, ptr %3, align 2
  ret i16 %18
}

; Function Attrs: inlinehint mustprogress nounwind uwtable
define linkonce_odr noundef i32 @_ZNK6icu_7713UnicodeString14getShortLengthEv(ptr noundef nonnull align 8 dereferenceable(64) %0) #2 comdat align 2 {
  %2 = alloca ptr, align 8
  store ptr %0, ptr %2, align 8, !tbaa !72
  %3 = load ptr, ptr %2, align 8
  %4 = getelementptr inbounds nuw %"class.icu_77::UnicodeString", ptr %3, i32 0, i32 1
  %5 = getelementptr inbounds nuw %struct.anon.0, ptr %4, i32 0, i32 0
  %6 = load i16, ptr %5, align 8, !tbaa !74
  %7 = sext i16 %6 to i32
  %8 = ashr i32 %7, 5
  ret i32 %8
}

; Function Attrs: inlinehint mustprogress nounwind uwtable
define linkonce_odr noundef signext i8 @_ZNK6icu_7713UnicodeString14hasShortLengthEv(ptr noundef nonnull align 8 dereferenceable(64) %0) #2 comdat align 2 {
  %2 = alloca ptr, align 8
  store ptr %0, ptr %2, align 8, !tbaa !72
  %3 = load ptr, ptr %2, align 8
  %4 = getelementptr inbounds nuw %"class.icu_77::UnicodeString", ptr %3, i32 0, i32 1
  %5 = getelementptr inbounds nuw %struct.anon.0, ptr %4, i32 0, i32 0
  %6 = load i16, ptr %5, align 8, !tbaa !74
  %7 = sext i16 %6 to i32
  %8 = icmp sge i32 %7, 0
  %9 = zext i1 %8 to i8
  ret i8 %9
}

; Function Attrs: inlinehint mustprogress nounwind uwtable
define linkonce_odr void @_ZN6icu_7713UnicodeString13setZeroLengthEv(ptr noundef nonnull align 8 dereferenceable(64) %0) #2 comdat align 2 {
  %2 = alloca ptr, align 8
  store ptr %0, ptr %2, align 8, !tbaa !72
  %3 = load ptr, ptr %2, align 8
  %4 = getelementptr inbounds nuw %"class.icu_77::UnicodeString", ptr %3, i32 0, i32 1
  %5 = getelementptr inbounds nuw %struct.anon.0, ptr %4, i32 0, i32 0
  %6 = load i16, ptr %5, align 8, !tbaa !74
  %7 = sext i16 %6 to i32
  %8 = and i32 %7, 31
  %9 = trunc i32 %8 to i16
  store i16 %9, ptr %5, align 8, !tbaa !74
  ret void
}

; Function Attrs: inlinehint mustprogress nounwind uwtable
define linkonce_odr void @_ZN6icu_7713UnicodeString10setToEmptyEv(ptr noundef nonnull align 8 dereferenceable(64) %0) #2 comdat align 2 {
  %2 = alloca ptr, align 8
  store ptr %0, ptr %2, align 8, !tbaa !72
  %3 = load ptr, ptr %2, align 8
  %4 = getelementptr inbounds nuw %"class.icu_77::UnicodeString", ptr %3, i32 0, i32 1
  %5 = getelementptr inbounds nuw %struct.anon.0, ptr %4, i32 0, i32 0
  store i16 2, ptr %5, align 8, !tbaa !74
  ret void
}

; Function Attrs: inlinehint mustprogress nounwind uwtable
define linkonce_odr noundef signext i8 @_ZNK6icu_7713UnicodeString7isBogusEv(ptr noundef nonnull align 8 dereferenceable(64) %0) #2 comdat align 2 {
  %2 = alloca ptr, align 8
  store ptr %0, ptr %2, align 8, !tbaa !72
  %3 = load ptr, ptr %2, align 8
  %4 = getelementptr inbounds nuw %"class.icu_77::UnicodeString", ptr %3, i32 0, i32 1
  %5 = getelementptr inbounds nuw %struct.anon.0, ptr %4, i32 0, i32 0
  %6 = load i16, ptr %5, align 8, !tbaa !74
  %7 = sext i16 %6 to i32
  %8 = and i32 %7, 1
  %9 = trunc i32 %8 to i8
  ret i8 %9
}

; Function Attrs: inlinehint mustprogress uwtable
define linkonce_odr noundef nonnull align 8 dereferenceable(64) ptr @_ZN6icu_7713UnicodeStringpLEDs(ptr noundef nonnull align 8 dereferenceable(64) %0, i16 noundef zeroext %1) #3 comdat align 2 {
  %3 = alloca ptr, align 8
  %4 = alloca i16, align 2
  store ptr %0, ptr %3, align 8, !tbaa !72
  store i16 %1, ptr %4, align 2, !tbaa !141
  %5 = load ptr, ptr %3, align 8
  %6 = call noundef nonnull align 8 dereferenceable(64) ptr @_ZN6icu_7713UnicodeString8doAppendEPKDsii(ptr noundef nonnull align 8 dereferenceable(64) %5, ptr noundef %4, i32 noundef 0, i32 noundef 1)
  ret ptr %6
}

; Function Attrs: inlinehint mustprogress uwtable
define linkonce_odr noundef i32 @_ZNK6icu_7713UnicodeString7indexOfEDs(ptr noundef nonnull align 8 dereferenceable(64) %0, i16 noundef zeroext %1) #3 comdat align 2 {
  %3 = alloca ptr, align 8
  %4 = alloca i16, align 2
  store ptr %0, ptr %3, align 8, !tbaa !72
  store i16 %1, ptr %4, align 2, !tbaa !141
  %5 = load ptr, ptr %3, align 8
  %6 = load i16, ptr %4, align 2, !tbaa !141
  %7 = call noundef i32 @_ZNK6icu_7713UnicodeString6lengthEv(ptr noundef nonnull align 8 dereferenceable(64) %5)
  %8 = call noundef i32 @_ZNK6icu_7713UnicodeString9doIndexOfEDsii(ptr noundef nonnull align 8 dereferenceable(64) %5, i16 noundef zeroext %6, i32 noundef 0, i32 noundef %7)
  ret i32 %8
}

; Function Attrs: mustprogress nounwind uwtable
define noundef signext i8 @_ZN6icu_7716SimpleDateFormat12isSyntaxCharEDs(i16 noundef zeroext %0) #0 align 2 {
  %2 = alloca i16, align 2
  store i16 %0, ptr %2, align 2, !tbaa !141
  %3 = load i16, ptr %2, align 2, !tbaa !141
  %4 = zext i16 %3 to i32
  %5 = icmp slt i32 %4, 128
  br i1 %5, label %6, label %12

6:                                                ; preds = %1
  %7 = load i16, ptr %2, align 2, !tbaa !141
  %8 = zext i16 %7 to i64
  %9 = getelementptr inbounds nuw [128 x i8], ptr @_ZZN6icu_7716SimpleDateFormat12isSyntaxCharEDsE17mapCharToIsSyntax, i64 0, i64 %8
  %10 = load i8, ptr %9, align 1, !tbaa !74
  %11 = sext i8 %10 to i32
  br label %13

12:                                               ; preds = %1
  br label %13

13:                                               ; preds = %12, %6
  %14 = phi i32 [ %11, %6 ], [ 0, %12 ]
  %15 = trunc i32 %14 to i8
  ret i8 %15
}

; Function Attrs: inlinehint mustprogress uwtable
define linkonce_odr noundef zeroext i16 @_ZNK6icu_7713UnicodeStringixEi(ptr noundef nonnull align 8 dereferenceable(64) %0, i32 noundef %1) #3 comdat align 2 {
  %3 = alloca ptr, align 8
  %4 = alloca i32, align 4
  store ptr %0, ptr %3, align 8, !tbaa !72
  store i32 %1, ptr %4, align 4, !tbaa !14
  %5 = load ptr, ptr %3, align 8
  %6 = load i32, ptr %4, align 4, !tbaa !14
  %7 = call noundef zeroext i16 @_ZNK6icu_7713UnicodeString8doCharAtEi(ptr noundef nonnull align 8 dereferenceable(64) %5, i32 noundef %6)
  ret i16 %7
}

; Function Attrs: inlinehint mustprogress uwtable
define linkonce_odr noundef i32 @_ZNK6icu_7713UnicodeString6lengthEv(ptr noundef nonnull align 8 dereferenceable(64) %0) #3 comdat align 2 {
  %2 = alloca ptr, align 8
  store ptr %0, ptr %2, align 8, !tbaa !72
  %3 = load ptr, ptr %2, align 8
  %4 = call noundef signext i8 @_ZNK6icu_7713UnicodeString14hasShortLengthEv(ptr noundef nonnull align 8 dereferenceable(64) %3)
  %5 = icmp ne i8 %4, 0
  br i1 %5, label %6, label %8

6:                                                ; preds = %1
  %7 = call noundef i32 @_ZNK6icu_7713UnicodeString14getShortLengthEv(ptr noundef nonnull align 8 dereferenceable(64) %3)
  br label %12

8:                                                ; preds = %1
  %9 = getelementptr inbounds nuw %"class.icu_77::UnicodeString", ptr %3, i32 0, i32 1
  %10 = getelementptr inbounds nuw %struct.anon.0, ptr %9, i32 0, i32 1
  %11 = load i32, ptr %10, align 4, !tbaa !74
  br label %12

12:                                               ; preds = %8, %6
  %13 = phi i32 [ %7, %6 ], [ %11, %8 ]
  ret i32 %13
}

; Function Attrs: inlinehint mustprogress uwtable
define linkonce_odr noundef nonnull align 8 dereferenceable(64) ptr @_ZN6icu_7713UnicodeString6removeEv(ptr noundef nonnull align 8 dereferenceable(64) %0) #3 comdat align 2 {
  %2 = alloca ptr, align 8
  store ptr %0, ptr %2, align 8, !tbaa !72
  %3 = load ptr, ptr %2, align 8
  %4 = call noundef signext i8 @_ZNK6icu_7713UnicodeString7isBogusEv(ptr noundef nonnull align 8 dereferenceable(64) %3)
  %5 = icmp ne i8 %4, 0
  br i1 %5, label %6, label %7

6:                                                ; preds = %1
  call void @_ZN6icu_7713UnicodeString10setToEmptyEv(ptr noundef nonnull align 8 dereferenceable(64) %3)
  br label %8

7:                                                ; preds = %1
  call void @_ZN6icu_7713UnicodeString13setZeroLengthEv(ptr noundef nonnull align 8 dereferenceable(64) %3)
  br label %8

8:                                                ; preds = %7, %6
  ret ptr %3
}

; Function Attrs: inlinehint mustprogress nounwind uwtable
define internal noundef signext i8 @_ZL9U_FAILURE10UErrorCode(i32 noundef %0) #2 {
  %2 = alloca i32, align 4
  store i32 %0, ptr %2, align 4, !tbaa !15
  %3 = load i32, ptr %2, align 4, !tbaa !15
  %4 = icmp sgt i32 %3, 0
  %5 = zext i1 %4 to i8
  ret i8 %5
}

; Function Attrs: mustprogress uwtable
define void @_ZN6icu_7716SimpleDateFormat16translatePatternERKNS_13UnicodeStringERS1_S3_S3_R10UErrorCode(ptr noundef nonnull align 8 dereferenceable(64) %0, ptr noundef nonnull align 8 dereferenceable(64) %1, ptr noundef nonnull align 8 dereferenceable(64) %2, ptr noundef nonnull align 8 dereferenceable(64) %3, ptr noundef nonnull align 4 dereferenceable(4) %4) #1 align 2 {
  %6 = alloca ptr, align 8
  %7 = alloca ptr, align 8
  %8 = alloca ptr, align 8
  %9 = alloca ptr, align 8
  %10 = alloca ptr, align 8
  %11 = alloca i8, align 1
  %12 = alloca i32, align 4
  %13 = alloca i32, align 4
  %14 = alloca i16, align 2
  %15 = alloca i32, align 4
  store ptr %0, ptr %6, align 8, !tbaa !72
  store ptr %1, ptr %7, align 8, !tbaa !72
  store ptr %2, ptr %8, align 8, !tbaa !72
  store ptr %3, ptr %9, align 8, !tbaa !72
  store ptr %4, ptr %10, align 8, !tbaa !22
  %16 = load ptr, ptr %10, align 8, !tbaa !22
  %17 = load i32, ptr %16, align 4, !tbaa !15
  %18 = call noundef signext i8 @_ZL9U_FAILURE10UErrorCode(i32 noundef %17)
  %19 = icmp ne i8 %18, 0
  br i1 %19, label %20, label %21

20:                                               ; preds = %5
  br label %88

21:                                               ; preds = %5
  %22 = load ptr, ptr %7, align 8, !tbaa !72
  %23 = call noundef nonnull align 8 dereferenceable(64) ptr @_ZN6icu_7713UnicodeString6removeEv(ptr noundef nonnull align 8 dereferenceable(64) %22)
  call void @llvm.lifetime.start.p0(i64 1, ptr %11) #12
  store i8 0, ptr %11, align 1, !tbaa !74
  call void @llvm.lifetime.start.p0(i64 4, ptr %12) #12
  store i32 0, ptr %12, align 4, !tbaa !14
  br label %24

24:                                               ; preds = %75, %21
  %25 = load i32, ptr %12, align 4, !tbaa !14
  %26 = load ptr, ptr %6, align 8, !tbaa !72
  %27 = call noundef i32 @_ZNK6icu_7713UnicodeString6lengthEv(ptr noundef nonnull align 8 dereferenceable(64) %26)
  %28 = icmp slt i32 %25, %27
  br i1 %28, label %30, label %29

29:                                               ; preds = %24
  store i32 2, ptr %13, align 4
  br label %78

30:                                               ; preds = %24
  call void @llvm.lifetime.start.p0(i64 2, ptr %14) #12
  %31 = load ptr, ptr %6, align 8, !tbaa !72
  %32 = load i32, ptr %12, align 4, !tbaa !14
  %33 = call noundef zeroext i16 @_ZNK6icu_7713UnicodeStringixEi(ptr noundef nonnull align 8 dereferenceable(64) %31, i32 noundef %32)
  store i16 %33, ptr %14, align 2, !tbaa !141
  %34 = load i8, ptr %11, align 1, !tbaa !74
  %35 = icmp ne i8 %34, 0
  br i1 %35, label %36, label %42

36:                                               ; preds = %30
  %37 = load i16, ptr %14, align 2, !tbaa !141
  %38 = zext i16 %37 to i32
  %39 = icmp eq i32 %38, 39
  br i1 %39, label %40, label %41

40:                                               ; preds = %36
  store i8 0, ptr %11, align 1, !tbaa !74
  br label %41

41:                                               ; preds = %40, %36
  br label %68

42:                                               ; preds = %30
  %43 = load i16, ptr %14, align 2, !tbaa !141
  %44 = zext i16 %43 to i32
  %45 = icmp eq i32 %44, 39
  br i1 %45, label %46, label %47

46:                                               ; preds = %42
  store i8 1, ptr %11, align 1, !tbaa !74
  br label %67

47:                                               ; preds = %42
  %48 = load i16, ptr %14, align 2, !tbaa !141
  %49 = call noundef signext i8 @_ZN6icu_7716SimpleDateFormat12isSyntaxCharEDs(i16 noundef zeroext %48)
  %50 = icmp ne i8 %49, 0
  br i1 %50, label %51, label %66

51:                                               ; preds = %47
  call void @llvm.lifetime.start.p0(i64 4, ptr %15) #12
  %52 = load ptr, ptr %8, align 8, !tbaa !72
  %53 = load i16, ptr %14, align 2, !tbaa !141
  %54 = call noundef i32 @_ZNK6icu_7713UnicodeString7indexOfEDs(ptr noundef nonnull align 8 dereferenceable(64) %52, i16 noundef zeroext %53)
  store i32 %54, ptr %15, align 4, !tbaa !14
  %55 = load i32, ptr %15, align 4, !tbaa !14
  %56 = icmp eq i32 %55, -1
  br i1 %56, label %57, label %59

57:                                               ; preds = %51
  %58 = load ptr, ptr %10, align 8, !tbaa !22
  store i32 3, ptr %58, align 4, !tbaa !15
  store i32 1, ptr %13, align 4
  br label %63

59:                                               ; preds = %51
  %60 = load ptr, ptr %9, align 8, !tbaa !72
  %61 = load i32, ptr %15, align 4, !tbaa !14
  %62 = call noundef zeroext i16 @_ZNK6icu_7713UnicodeStringixEi(ptr noundef nonnull align 8 dereferenceable(64) %60, i32 noundef %61)
  store i16 %62, ptr %14, align 2, !tbaa !141
  store i32 0, ptr %13, align 4
  br label %63

63:                                               ; preds = %59, %57
  call void @llvm.lifetime.end.p0(i64 4, ptr %15) #12
  %64 = load i32, ptr %13, align 4
  switch i32 %64, label %72 [
    i32 0, label %65
  ]

65:                                               ; preds = %63
  br label %66

66:                                               ; preds = %65, %47
  br label %67

67:                                               ; preds = %66, %46
  br label %68

68:                                               ; preds = %67, %41
  %69 = load i16, ptr %14, align 2, !tbaa !141
  %70 = load ptr, ptr %7, align 8, !tbaa !72
  %71 = call noundef nonnull align 8 dereferenceable(64) ptr @_ZN6icu_7713UnicodeStringpLEDs(ptr noundef nonnull align 8 dereferenceable(64) %70, i16 noundef zeroext %69)
  store i32 0, ptr %13, align 4
  br label %72

72:                                               ; preds = %68, %63
  call void @llvm.lifetime.end.p0(i64 2, ptr %14) #12
  %73 = load i32, ptr %13, align 4
  switch i32 %73, label %78 [
    i32 0, label %74
  ]

74:                                               ; preds = %72
  br label %75

75:                                               ; preds = %74
  %76 = load i32, ptr %12, align 4, !tbaa !14
  %77 = add nsw i32 %76, 1
  store i32 %77, ptr %12, align 4, !tbaa !14
  br label %24, !llvm.loop !330

78:                                               ; preds = %72, %29
  call void @llvm.lifetime.end.p0(i64 4, ptr %12) #12
  %79 = load i32, ptr %13, align 4
  switch i32 %79, label %86 [
    i32 2, label %80
  ]

80:                                               ; preds = %78
  %81 = load i8, ptr %11, align 1, !tbaa !74
  %82 = icmp ne i8 %81, 0
  br i1 %82, label %83, label %85

83:                                               ; preds = %80
  %84 = load ptr, ptr %10, align 8, !tbaa !22
  store i32 3, ptr %84, align 4, !tbaa !15
  store i32 1, ptr %13, align 4
  br label %86

85:                                               ; preds = %80
  store i32 0, ptr %13, align 4
  br label %86

86:                                               ; preds = %85, %83, %78
  call void @llvm.lifetime.end.p0(i64 1, ptr %11) #12
  %87 = load i32, ptr %13, align 4
  switch i32 %87, label %89 [
    i32 0, label %88
    i32 1, label %88
  ]

88:                                               ; preds = %20, %86, %86
  ret void

89:                                               ; preds = %86
  unreachable
}