; Function Attrs: mustprogress uwtable
define void @_ZN6icu_7716SimpleDateFormat16translatePatternERKNS_13UnicodeStringERS1_S3_S3_R10UErrorCode(ptr noundef nonnull readonly align 8 captures(none) dereferenceable(64) %0, ptr noundef nonnull align 8 dereferenceable(64) %1, ptr noundef nonnull align 8 dereferenceable(64) %2, ptr noundef nonnull readonly align 8 captures(none) dereferenceable(64) %3, ptr noundef nonnull align 4 captures(none) dereferenceable(4) %4) local_unnamed_addr #1 align 2 {
  %6 = alloca i16, align 2
  %7 = load i32, ptr %4, align 4, !tbaa !13
  %8 = icmp slt i32 %7, 1
  br i1 %8, label %9, label %._crit_edge.thread

9:                                                ; preds = %5
  %10 = getelementptr inbounds nuw i8, ptr %1, i64 8
  %11 = load i16, ptr %10, align 8, !tbaa !51
  %12 = and i16 %11, 1
  %.not.i = icmp eq i16 %12, 0
  %13 = and i16 %11, 30
  %storemerge.i = select i1 %.not.i, i16 %13, i16 2
  store i16 %storemerge.i, ptr %10, align 8, !tbaa !51
  %14 = getelementptr inbounds nuw i8, ptr %0, i64 8
  %15 = getelementptr inbounds nuw i8, ptr %0, i64 12
  %16 = load i16, ptr %14, align 8, !tbaa !51
  %17 = icmp slt i16 %16, 0
  %18 = ashr i16 %16, 5
  %19 = sext i16 %18 to i32
  %20 = load i32, ptr %15, align 4
  %21 = select i1 %17, i32 %20, i32 %19
  %.not3566 = icmp sgt i32 %21, 0
  br i1 %.not3566, label %_ZNK6icu_7713UnicodeStringixEi.exit.lr.ph, label %._crit_edge.thread

_ZNK6icu_7713UnicodeStringixEi.exit.lr.ph:        ; preds = %9
  %22 = getelementptr inbounds nuw i8, ptr %0, i64 10
  %23 = getelementptr inbounds nuw i8, ptr %0, i64 24
  %24 = getelementptr inbounds nuw i8, ptr %2, i64 8
  %25 = getelementptr inbounds nuw i8, ptr %2, i64 12
  %26 = getelementptr inbounds nuw i8, ptr %3, i64 8
  %27 = getelementptr inbounds nuw i8, ptr %3, i64 12
  %28 = getelementptr inbounds nuw i8, ptr %3, i64 10
  %29 = getelementptr inbounds nuw i8, ptr %3, i64 24
  br label %_ZNK6icu_7713UnicodeStringixEi.exit

_ZNK6icu_7713UnicodeStringixEi.exit:              ; preds = %_ZNK6icu_7713UnicodeStringixEi.exit.lr.ph, %_ZN6icu_7716SimpleDateFormat12isSyntaxCharEDs.exit.thread
  %indvars.iv = phi i64 [ 0, %_ZNK6icu_7713UnicodeStringixEi.exit.lr.ph ], [ %indvars.iv.next, %_ZN6icu_7716SimpleDateFormat12isSyntaxCharEDs.exit.thread ]
  %30 = phi i16 [ %16, %_ZNK6icu_7713UnicodeStringixEi.exit.lr.ph ], [ %70, %_ZN6icu_7716SimpleDateFormat12isSyntaxCharEDs.exit.thread ]
  %.068 = phi i8 [ 0, %_ZNK6icu_7713UnicodeStringixEi.exit.lr.ph ], [ %.2.shrunk, %_ZN6icu_7716SimpleDateFormat12isSyntaxCharEDs.exit.thread ]
  %31 = and i16 %30, 2
  %.not.i.i.i = icmp eq i16 %31, 0
  %32 = load ptr, ptr %23, align 8
  %33 = select i1 %.not.i.i.i, ptr %32, ptr %22
  %34 = getelementptr inbounds nuw i16, ptr %33, i64 %indvars.iv
  %35 = load i16, ptr %34, align 2, !tbaa !69
  %.fr = freeze i16 %35
  %.not32 = icmp eq i8 %.068, 0
  br i1 %.not32, label %39, label %36

36:                                               ; preds = %_ZNK6icu_7713UnicodeStringixEi.exit
  %37 = icmp ne i16 %.fr, 39
  %38 = zext i1 %37 to i8
  br label %_ZN6icu_7716SimpleDateFormat12isSyntaxCharEDs.exit.thread

39:                                               ; preds = %_ZNK6icu_7713UnicodeStringixEi.exit
  %40 = icmp eq i16 %.fr, 39
  br i1 %40, label %_ZN6icu_7716SimpleDateFormat12isSyntaxCharEDs.exit.thread, label %41

41:                                               ; preds = %39
  %42 = icmp ult i16 %.fr, 128
  br i1 %42, label %_ZN6icu_7716SimpleDateFormat12isSyntaxCharEDs.exit, label %_ZN6icu_7716SimpleDateFormat12isSyntaxCharEDs.exit.thread

_ZN6icu_7716SimpleDateFormat12isSyntaxCharEDs.exit: ; preds = %41
  %43 = zext nneg i16 %.fr to i64
  %44 = getelementptr inbounds nuw [128 x i8], ptr @_ZZN6icu_7716SimpleDateFormat12isSyntaxCharEDsE17mapCharToIsSyntax, i64 0, i64 %43
  %45 = load i8, ptr %44, align 1, !tbaa !51
  %.not33 = icmp eq i8 %45, 0
  br i1 %.not33, label %_ZN6icu_7716SimpleDateFormat12isSyntaxCharEDs.exit.thread, label %46

46:                                               ; preds = %_ZN6icu_7716SimpleDateFormat12isSyntaxCharEDs.exit
  %47 = load i16, ptr %24, align 8, !tbaa !51
  %48 = icmp slt i16 %47, 0
  %49 = ashr i16 %47, 5
  %50 = sext i16 %49 to i32
  %51 = load i32, ptr %25, align 4
  %52 = select i1 %48, i32 %51, i32 %50
  %53 = call noundef i32 @_ZNK6icu_7713UnicodeString9doIndexOfEDsii(ptr noundef nonnull align 8 dereferenceable(64) %2, i16 noundef zeroext %.fr, i32 noundef 0, i32 noundef %52)
  %.not34 = icmp eq i32 %53, -1
  br i1 %.not34, label %._crit_edge.thread.sink.split, label %54

54:                                               ; preds = %46
  %55 = load i16, ptr %26, align 8, !tbaa !51
  %56 = icmp slt i16 %55, 0
  %57 = ashr i16 %55, 5
  %58 = sext i16 %57 to i32
  %59 = load i32, ptr %27, align 4
  %60 = select i1 %56, i32 %59, i32 %58
  %61 = icmp ult i32 %53, %60
  br i1 %61, label %62, label %_ZN6icu_7716SimpleDateFormat12isSyntaxCharEDs.exit.thread

62:                                               ; preds = %54
  %63 = and i16 %55, 2
  %.not.i.i.i38 = icmp eq i16 %63, 0
  %64 = load ptr, ptr %29, align 8
  %65 = select i1 %.not.i.i.i38, ptr %64, ptr %28
  %66 = sext i32 %53 to i64
  %67 = getelementptr inbounds i16, ptr %65, i64 %66
  %68 = load i16, ptr %67, align 2, !tbaa !69
  br label %_ZN6icu_7716SimpleDateFormat12isSyntaxCharEDs.exit.thread

_ZN6icu_7716SimpleDateFormat12isSyntaxCharEDs.exit.thread: ; preds = %36, %54, %62, %41, %_ZN6icu_7716SimpleDateFormat12isSyntaxCharEDs.exit, %39
  %.025 = phi i16 [ %.fr, %_ZN6icu_7716SimpleDateFormat12isSyntaxCharEDs.exit ], [ 39, %39 ], [ %.fr, %41 ], [ -1, %54 ], [ %68, %62 ], [ %.fr, %36 ]
  %.2.shrunk = phi i8 [ 0, %_ZN6icu_7716SimpleDateFormat12isSyntaxCharEDs.exit ], [ 1, %39 ], [ 0, %41 ], [ 0, %54 ], [ 0, %62 ], [ %38, %36 ]
  call void @llvm.lifetime.start.p0(i64 2, ptr nonnull %6)
  store i16 %.025, ptr %6, align 2, !tbaa !69
  %69 = call noundef nonnull align 8 dereferenceable(64) ptr @_ZN6icu_7713UnicodeString8doAppendEPKDsii(ptr noundef nonnull align 8 dereferenceable(64) %1, ptr noundef nonnull %6, i32 noundef 0, i32 noundef 1)
  call void @llvm.lifetime.end.p0(i64 2, ptr nonnull %6)
  %indvars.iv.next = add nuw nsw i64 %indvars.iv, 1
  %70 = load i16, ptr %14, align 8, !tbaa !51
  %71 = icmp slt i16 %70, 0
  %72 = ashr i16 %70, 5
  %73 = sext i16 %72 to i32
  %74 = load i32, ptr %15, align 4
  %75 = select i1 %71, i32 %74, i32 %73
  %76 = sext i32 %75 to i64
  %.not35 = icmp slt i64 %indvars.iv.next, %76
  br i1 %.not35, label %_ZNK6icu_7713UnicodeStringixEi.exit, label %._crit_edge, !llvm.loop !216

._crit_edge:                                      ; preds = %_ZN6icu_7716SimpleDateFormat12isSyntaxCharEDs.exit.thread
  %77 = icmp eq i8 %.2.shrunk, 0
  br i1 %77, label %._crit_edge.thread, label %._crit_edge.thread.sink.split

._crit_edge.thread.sink.split:                    ; preds = %46, %._crit_edge
  store i32 3, ptr %4, align 4, !tbaa !13
  br label %._crit_edge.thread

._crit_edge.thread:                               ; preds = %._crit_edge.thread.sink.split, %9, %._crit_edge, %5
  ret void
}